target datalayout = "e-m:e-p270:32:32-p271:32:32-p272:64:64-i64:64-i128:128-f80:128-n8:16:32:64-S128"
target triple = "x86_64-pc-linux-gnu"

%"class.icu_77::RBBITableBuilder" = type <{ ptr, ptr, ptr, ptr, ptr, ptr, i32, [4 x i8] }>
%"class.icu_77::UVector" = type { %"class.icu_77::UObject", i32, i32, ptr, ptr, ptr }
%"class.icu_77::UObject" = type { ptr }
%"class.icu_77::RBBIRuleBuilder" = type { ptr, ptr, ptr, ptr, ptr, %"class.icu_77::UnicodeString", ptr, ptr, ptr, ptr, ptr, ptr, i8, i8, ptr, ptr, ptr, ptr }
%"class.icu_77::UnicodeString" = type { %"class.icu_77::Replaceable", %"union.icu_77::UnicodeString::StackBufferOrFields" }
%"class.icu_77::Replaceable" = type { %"class.icu_77::UObject" }
%"union.icu_77::UnicodeString::StackBufferOrFields" = type { %struct.anon.0, [32 x i8] }
%struct.anon.0 = type { i16, i32, i32, ptr }

; Function Attrs: mustprogress uwtable
define noundef zeroext i1 @_ZNK6icu_7716RBBITableBuilder20use8BitsForSafeTableEv(ptr noundef nonnull align 8 dereferenceable(52) %0) #0 align 2 {
  %2 = alloca ptr, align 8
  store ptr %0, ptr %2, align 8, !tbaa !3
  %3 = load ptr, ptr %2, align 8
  %4 = getelementptr inbounds nuw %"class.icu_77::RBBITableBuilder", ptr %3, i32 0, i32 4
  %5 = load ptr, ptr %4, align 8, !tbaa !21
  %6 = call noundef i32 @_ZNK6icu_777UVector4sizeEv(ptr noundef nonnull align 8 dereferenceable(40) %5)
  %7 = icmp sle i32 %6, 255
  ret i1 %7
}

; Function Attrs: inlinehint mustprogress nounwind uwtable
define linkonce_odr noundef i32 @_ZNK6icu_777UVector4sizeEv(ptr noundef nonnull align 8 dereferenceable(40) %0) #1 comdat align 2 {
  %2 = alloca ptr, align 8
  store ptr %0, ptr %2, align 8, !tbaa !31
  %3 = load ptr, ptr %2, align 8
  %4 = getelementptr inbounds nuw %"class.icu_77::UVector", ptr %3, i32 0, i32 1
  %5 = load i32, ptr %4, align 8, !tbaa !32
  ret i32 %5
}

; Function Attrs: mustprogress uwtable
define noundef i32 @_ZNK6icu_7716RBBITableBuilder16getSafeTableSizeEv(ptr noundef nonnull align 8 dereferenceable(52) %0) #0 align 2 {
  %2 = alloca i32, align 4
  %3 = alloca ptr, align 8
  %4 = alloca i32, align 4
  %5 = alloca i32, align 4
  %6 = alloca i32, align 4
  %7 = alloca i32, align 4
  %8 = alloca i32, align 4
  store ptr %0, ptr %3, align 8, !tbaa !3
  %9 = load ptr, ptr %3, align 8
  call void @llvm.lifetime.start.p0(i64 4, ptr %4) #11
  store i32 0, ptr %4, align 4, !tbaa !26
  call void @llvm.lifetime.start.p0(i64 4, ptr %5) #11
  call void @llvm.lifetime.start.p0(i64 4, ptr %6) #11
  call void @llvm.lifetime.start.p0(i64 4, ptr %7) #11
  %10 = getelementptr inbounds nuw %"class.icu_77::RBBITableBuilder", ptr %9, i32 0, i32 4
  %11 = load ptr, ptr %10, align 8, !tbaa !21
  %12 = icmp eq ptr %11, null
  br i1 %12, label %13, label %14

13:                                               ; preds = %1
  store i32 0, ptr %2, align 4
  store i32 1, ptr %8, align 4
  br label %43

14:                                               ; preds = %1
  store i32 20, ptr %4, align 4, !tbaa !26
  %15 = getelementptr inbounds nuw %"class.icu_77::RBBITableBuilder", ptr %9, i32 0, i32 4
  %16 = load ptr, ptr %15, align 8, !tbaa !21
  %17 = call noundef i32 @_ZNK6icu_777UVector4sizeEv(ptr noundef nonnull align 8 dereferenceable(40) %16)
  store i32 %17, ptr %5, align 4, !tbaa !26
  %18 = getelementptr inbounds nuw %"class.icu_77::RBBITableBuilder", ptr %9, i32 0, i32 0
  %19 = load ptr, ptr %18, align 8, !tbaa !14
  %20 = getelementptr inbounds nuw %"class.icu_77::RBBIRuleBuilder", ptr %19, i32 0, i32 14
  %21 = load ptr, ptr %20, align 8, !tbaa !39
  %22 = call noundef i32 @_ZNK6icu_7714RBBISetBuilder20getNumCharCategoriesEv(ptr noundef nonnull align 8 dereferenceable(53) %21)
  store i32 %22, ptr %6, align 4, !tbaa !26
  %23 = call noundef zeroext i1 @_ZNK6icu_7716RBBITableBuilder20use8BitsForSafeTableEv(ptr noundef nonnull align 8 dereferenceable(52) %9)
  br i1 %23, label %24, label %30

24:                                               ; preds = %14
  %25 = load i32, ptr %6, align 4, !tbaa !26
  %26 = sext i32 %25 to i64
  %27 = mul i64 1, %26
  %28 = add i64 3, %27
  %29 = trunc i64 %28 to i32
  store i32 %29, ptr %7, align 4, !tbaa !26
  br label %36

30:                                               ; preds = %14
  %31 = load i32, ptr %6, align 4, !tbaa !26
  %32 = sext i32 %31 to i64
  %33 = mul i64 2, %32
  %34 = add i64 6, %33
  %35 = trunc i64 %34 to i32
  store i32 %35, ptr %7, align 4, !tbaa !26
  br label %36

36:                                               ; preds = %30, %24
  %37 = load i32, ptr %5, align 4, !tbaa !26
  %38 = load i32, ptr %7, align 4, !tbaa !26
  %39 = mul nsw i32 %37, %38
  %40 = load i32, ptr %4, align 4, !tbaa !26
  %41 = add nsw i32 %40, %39
  store i32 %41, ptr %4, align 4, !tbaa !26
  %42 = load i32, ptr %4, align 4, !tbaa !26
  store i32 %42, ptr %2, align 4
  store i32 1, ptr %8, align 4
  br label %43

43:                                               ; preds = %36, %13
  call void @llvm.lifetime.end.p0(i64 4, ptr %7) #11
  call void @llvm.lifetime.end.p0(i64 4, ptr %6) #11
  call void @llvm.lifetime.end.p0(i64 4, ptr %5) #11
  call void @llvm.lifetime.end.p0(i64 4, ptr %4) #11
  %44 = load i32, ptr %2, align 4
  ret i32 %44
}