; Function Attrs: mustprogress uwtable
define noundef range(i32 -2147483628, -2147483648) i32 @_ZNK6icu_7716RBBITableBuilder16getSafeTableSizeEv(ptr noundef nonnull readonly align 8 captures(none) dereferenceable(52) %0) local_unnamed_addr #0 align 2 {
  %2 = getelementptr inbounds nuw i8, ptr %0, i64 32
  %3 = load ptr, ptr %2, align 8, !tbaa !28
  %4 = icmp eq ptr %3, null
  br i1 %4, label %21, label %5

5:                                                ; preds = %1
  %6 = getelementptr inbounds nuw i8, ptr %3, i64 8
  %7 = load i32, ptr %6, align 8, !tbaa !20
  %8 = load ptr, ptr %0, align 8, !tbaa !3
  %9 = getelementptr inbounds nuw i8, ptr %8, i64 160
  %10 = load ptr, ptr %9, align 8, !tbaa !33
  %11 = tail call noundef i32 @_ZNK6icu_7714RBBISetBuilder20getNumCharCategoriesEv(ptr noundef nonnull align 8 dereferenceable(53) %10)
  %12 = load ptr, ptr %2, align 8, !tbaa !28
  %13 = getelementptr inbounds nuw i8, ptr %12, i64 8
  %14 = load i32, ptr %13, align 8, !tbaa !20
  %15 = icmp slt i32 %14, 256
  %16 = add i32 %11, 3
  %17 = shl i32 %11, 1
  %18 = add i32 %17, 6
  %.0 = select i1 %15, i32 %16, i32 %18
  %19 = mul nsw i32 %.0, %7
  %20 = add nsw i32 %19, 20
  br label %21

21:                                               ; preds = %1, %5
  %.07 = phi i32 [ %20, %5 ], [ 0, %1 ]
  ret i32 %.07
}